; Function Attrs: nounwind uwtable
define internal fastcc void @compiler_free(ptr noundef nonnull %0) unnamed_addr #0 {
  %2 = getelementptr inbounds nuw i8, ptr %0, i64 8
  %3 = load ptr, ptr %2, align 8, !tbaa !47
  %.not = icmp eq ptr %3, null
  br i1 %.not, label %5, label %4

4:                                                ; preds = %1
  tail call void @_PySymtable_Free(ptr noundef nonnull %3) #11
  br label %5

5:                                                ; preds = %4, %1
  %6 = load ptr, ptr %0, align 8, !tbaa !77
  %.not.i = icmp eq ptr %6, null
  br i1 %.not.i, label %Py_XDECREF.exit, label %7

7:                                                ; preds = %5
  %8 = load i32, ptr %6, align 8, !tbaa !4
  %.not.i.i = icmp sgt i32 %8, -1
  br i1 %.not.i.i, label %9, label %Py_XDECREF.exit

9:                                                ; preds = %7
  %10 = add nsw i32 %8, -1
  store i32 %10, ptr %6, align 8, !tbaa !4
  %11 = icmp eq i32 %10, 0
  br i1 %11, label %12, label %Py_XDECREF.exit

12:                                               ; preds = %9
  tail call void @_Py_Dealloc(ptr noundef nonnull %6) #11
  br label %Py_XDECREF.exit

Py_XDECREF.exit:                                  ; preds = %5, %7, %9, %12
  %13 = getelementptr inbounds nuw i8, ptr %0, i64 56
  %14 = load ptr, ptr %13, align 8, !tbaa !41
  %.not.i6 = icmp eq ptr %14, null
  br i1 %.not.i6, label %Py_XDECREF.exit8, label %15

15:                                               ; preds = %Py_XDECREF.exit
  %16 = load i32, ptr %14, align 8, !tbaa !4
  %.not.i.i7 = icmp sgt i32 %16, -1
  br i1 %.not.i.i7, label %17, label %Py_XDECREF.exit8

17:                                               ; preds = %15
  %18 = add nsw i32 %16, -1
  store i32 %18, ptr %14, align 8, !tbaa !4
  %19 = icmp eq i32 %18, 0
  br i1 %19, label %20, label %Py_XDECREF.exit8

20:                                               ; preds = %17
  tail call void @_Py_Dealloc(ptr noundef nonnull %14) #11
  br label %Py_XDECREF.exit8

Py_XDECREF.exit8:                                 ; preds = %Py_XDECREF.exit, %15, %17, %20
  %21 = getelementptr inbounds nuw i8, ptr %0, i64 72
  %22 = load ptr, ptr %21, align 8, !tbaa !10
  %.not.i9 = icmp eq ptr %22, null
  br i1 %.not.i9, label %Py_XDECREF.exit11, label %23

23:                                               ; preds = %Py_XDECREF.exit8
  %24 = load i32, ptr %22, align 8, !tbaa !4
  %.not.i.i10 = icmp sgt i32 %24, -1
  br i1 %.not.i.i10, label %25, label %Py_XDECREF.exit11

25:                                               ; preds = %23
  %26 = add nsw i32 %24, -1
  store i32 %26, ptr %22, align 8, !tbaa !4
  %27 = icmp eq i32 %26, 0
  br i1 %27, label %28, label %Py_XDECREF.exit11

28:                                               ; preds = %25
  tail call void @_Py_Dealloc(ptr noundef nonnull %22) #11
  br label %Py_XDECREF.exit11

Py_XDECREF.exit11:                                ; preds = %Py_XDECREF.exit8, %23, %25, %28
  tail call void @PyMem_Free(ptr noundef nonnull %0) #11
  ret void
}